target datalayout = "e-m:e-p270:32:32-p271:32:32-p272:64:64-i64:64-i128:128-f80:128-n8:16:32:64-S128"
target triple = "x86_64-unknown-linux-gnu"

%"class.QuantLib::Date" = type { i64 }
%"class.boost::detail::shared_count" = type { ptr }
%"class.boost::shared_ptr.27" = type { ptr, %"class.boost::detail::shared_count" }
%"struct.std::pair.28" = type { double, double }

@.str.9 = private unnamed_addr constant [8 x i8] c"px != 0\00", align 1
@.str.10 = private unnamed_addr constant [102 x i8] c"generated/home/dtcxzyw/WorkSpace/SDK/vcpkg/installed/x64-linux/include/boost/smart_ptr/shared_ptr.hpp\00", align 1
@__PRETTY_FUNCTION__._ZNK5boost10shared_ptrIN8QuantLib18YieldTermStructureEEptEv = private unnamed_addr constant [153 x i8] c"typename boost::detail::sp_member_access<T>::type boost::shared_ptr<QuantLib::YieldTermStructure>::operator->() const [T = QuantLib::YieldTermStructure]\00", align 1
@__PRETTY_FUNCTION__._ZNK5boost10shared_ptrIN8QuantLib18YieldTermStructureEEdeEv = private unnamed_addr constant [150 x i8] c"typename boost::detail::sp_dereference<T>::type boost::shared_ptr<QuantLib::YieldTermStructure>::operator*() const [T = QuantLib::YieldTermStructure]\00", align 1

; Function Attrs: mustprogress nounwind uwtable
define linkonce_odr noundef nonnull align 8 dereferenceable(8) ptr @_ZNSt10__pair_getILm1EE10__move_getIddEEOT0_OSt4pairIT_S2_E(ptr noundef nonnull align 8 dereferenceable(16) %__pair) #1 comdat align 2 {
entry:
  %__pair.addr = alloca ptr, align 8
  store ptr %__pair, ptr %__pair.addr, align 8, !tbaa !3
  %0 = load ptr, ptr %__pair.addr, align 8, !tbaa !3
  %second = getelementptr inbounds nuw %"struct.std::pair.28", ptr %0, i32 0, i32 1
  ret ptr %second
}

; Function Attrs: mustprogress nounwind uwtable
define linkonce_odr noundef nonnull align 8 dereferenceable(8) ptr @_ZNSt10__pair_getILm0EE10__move_getIddEEOT_OSt4pairIS2_T0_E(ptr noundef nonnull align 8 dereferenceable(16) %__pair) #1 comdat align 2 {
entry:
  %__pair.addr = alloca ptr, align 8
  store ptr %__pair, ptr %__pair.addr, align 8, !tbaa !3
  %0 = load ptr, ptr %__pair.addr, align 8, !tbaa !3
  %first = getelementptr inbounds nuw %"struct.std::pair.28", ptr %0, i32 0, i32 0
  ret ptr %first
}

; Function Attrs: mustprogress nounwind uwtable
define linkonce_odr void @_ZNSt4pairIddEC2IRdS2_TnNSt9enable_ifIXaaclsr5_PCCPE22_MoveConstructiblePairIT_T0_EEclsr5_PCCPE30_ImplicitlyMoveConvertiblePairIS4_S5_EEEbE4typeELb1EEEOS4_OS5_(ptr noundef nonnull align 8 dereferenceable(16) %this, ptr noundef nonnull align 8 dereferenceable(8) %__x, ptr noundef nonnull align 8 dereferenceable(8) %__y) unnamed_addr #1 comdat align 2 {
entry:
  %this.addr = alloca ptr, align 8
  %__x.addr = alloca ptr, align 8
  %__y.addr = alloca ptr, align 8
  store ptr %this, ptr %this.addr, align 8, !tbaa !3
  store ptr %__x, ptr %__x.addr, align 8, !tbaa !3
  store ptr %__y, ptr %__y.addr, align 8, !tbaa !3
  %this1 = load ptr, ptr %this.addr, align 8
  %first = getelementptr inbounds nuw %"struct.std::pair.28", ptr %this1, i32 0, i32 0
  %0 = load ptr, ptr %__x.addr, align 8, !tbaa !3
  %1 = load double, ptr %0, align 8, !tbaa !71
  store double %1, ptr %first, align 8, !tbaa !162
  %second = getelementptr inbounds nuw %"struct.std::pair.28", ptr %this1, i32 0, i32 1
  %2 = load ptr, ptr %__y.addr, align 8, !tbaa !3
  %3 = load double, ptr %2, align 8, !tbaa !71
  store double %3, ptr %second, align 8, !tbaa !164
  ret void
}

; Function Attrs: inlinehint mustprogress uwtable
define linkonce_odr noundef double @_ZNK8QuantLib18YieldTermStructure8discountERKNS_4DateEb(ptr noundef nonnull align 8 dereferenceable(152) %this, ptr noundef nonnull align 8 dereferenceable(8) %d, i1 noundef zeroext %extrapolate) #4 comdat align 2 {
entry:
  %this.addr = alloca ptr, align 8
  %d.addr = alloca ptr, align 8
  %extrapolate.addr = alloca i8, align 1
  store ptr %this, ptr %this.addr, align 8, !tbaa !3
  store ptr %d, ptr %d.addr, align 8, !tbaa !3
  %storedv = zext i1 %extrapolate to i8
  store i8 %storedv, ptr %extrapolate.addr, align 1, !tbaa !18
  %this1 = load ptr, ptr %this.addr, align 8
  %0 = load ptr, ptr %d.addr, align 8, !tbaa !3
  %call = call noundef double @_ZNK8QuantLib13TermStructure17timeFromReferenceERKNS_4DateE(ptr noundef nonnull align 8 dereferenceable(64) %this1, ptr noundef nonnull align 8 dereferenceable(8) %0)
  %1 = load i8, ptr %extrapolate.addr, align 1, !tbaa !18, !range !58, !noundef !59
  %loadedv = trunc i8 %1 to i1
  %call2 = call noundef double @_ZNK8QuantLib18YieldTermStructure8discountEdb(ptr noundef nonnull align 8 dereferenceable(152) %this1, double noundef %call, i1 noundef zeroext %loadedv)
  ret double %call2
}

; Function Attrs: mustprogress nounwind uwtable
define linkonce_odr noundef nonnull align 8 dereferenceable(8) ptr @_ZSt3getILm1EddEONSt13tuple_elementIXT_ESt4pairIT0_T1_EE4typeEOS4_(ptr noundef nonnull align 8 dereferenceable(16) %__in) #1 comdat {
entry:
  %__in.addr = alloca ptr, align 8
  store ptr %__in, ptr %__in.addr, align 8, !tbaa !3
  %0 = load ptr, ptr %__in.addr, align 8, !tbaa !3
  %call = call noundef nonnull align 8 dereferenceable(8) ptr @_ZNSt10__pair_getILm1EE10__move_getIddEEOT0_OSt4pairIT_S2_E(ptr noundef nonnull align 8 dereferenceable(16) %0) #12
  ret ptr %call
}

; Function Attrs: mustprogress nounwind uwtable
define linkonce_odr noundef nonnull align 8 dereferenceable(8) ptr @_ZSt3getILm0EddEONSt13tuple_elementIXT_ESt4pairIT0_T1_EE4typeEOS4_(ptr noundef nonnull align 8 dereferenceable(16) %__in) #1 comdat {
entry:
  %__in.addr = alloca ptr, align 8
  store ptr %__in, ptr %__in.addr, align 8, !tbaa !3
  %0 = load ptr, ptr %__in.addr, align 8, !tbaa !3
  %call = call noundef nonnull align 8 dereferenceable(8) ptr @_ZNSt10__pair_getILm0EE10__move_getIddEEOT_OSt4pairIS2_T0_E(ptr noundef nonnull align 8 dereferenceable(16) %0) #12
  ret ptr %call
}

; Function Attrs: mustprogress uwtable
define linkonce_odr noundef nonnull align 8 dereferenceable(152) ptr @_ZNK5boost10shared_ptrIN8QuantLib18YieldTermStructureEEdeEv(ptr noundef nonnull align 8 dereferenceable(16) %this) #2 comdat align 2 {
entry:
  %this.addr = alloca ptr, align 8
  store ptr %this, ptr %this.addr, align 8, !tbaa !3
  %this1 = load ptr, ptr %this.addr, align 8
  %px = getelementptr inbounds nuw %"class.boost::shared_ptr.27", ptr %this1, i32 0, i32 0
  %0 = load ptr, ptr %px, align 8, !tbaa !68
  %cmp = icmp ne ptr %0, null
  %lnot = xor i1 %cmp, true
  %lnot2 = xor i1 %lnot, true
  %conv = zext i1 %lnot2 to i64
  %expval = call i64 @llvm.expect.i64(i64 %conv, i64 1)
  %tobool = icmp ne i64 %expval, 0
  br i1 %tobool, label %cond.true, label %cond.false

cond.true:                                        ; preds = %entry
  br label %cond.end

cond.false:                                       ; preds = %entry
  call void @_ZN5boost16assertion_failedEPKcS1_S1_l(ptr noundef @.str.9, ptr noundef @__PRETTY_FUNCTION__._ZNK5boost10shared_ptrIN8QuantLib18YieldTermStructureEEdeEv, ptr noundef @.str.10, i64 noundef 778)
  br label %cond.end

cond.end:                                         ; preds = %cond.false, %cond.true
  %px3 = getelementptr inbounds nuw %"class.boost::shared_ptr.27", ptr %this1, i32 0, i32 0
  %1 = load ptr, ptr %px3, align 8, !tbaa !68
  ret ptr %1
}

; Function Attrs: mustprogress uwtable
define linkonce_odr noundef ptr @_ZNK5boost10shared_ptrIN8QuantLib18YieldTermStructureEEptEv(ptr noundef nonnull align 8 dereferenceable(16) %this) #2 comdat align 2 {
entry:
  %this.addr = alloca ptr, align 8
  store ptr %this, ptr %this.addr, align 8, !tbaa !3
  %this1 = load ptr, ptr %this.addr, align 8
  %px = getelementptr inbounds nuw %"class.boost::shared_ptr.27", ptr %this1, i32 0, i32 0
  %0 = load ptr, ptr %px, align 8, !tbaa !68
  %cmp = icmp ne ptr %0, null
  %lnot = xor i1 %cmp, true
  %lnot2 = xor i1 %lnot, true
  %conv = zext i1 %lnot2 to i64
  %expval = call i64 @llvm.expect.i64(i64 %conv, i64 1)
  %tobool = icmp ne i64 %expval, 0
  br i1 %tobool, label %cond.true, label %cond.false

cond.true:                                        ; preds = %entry
  br label %cond.end

cond.false:                                       ; preds = %entry
  call void @_ZN5boost16assertion_failedEPKcS1_S1_l(ptr noundef @.str.9, ptr noundef @__PRETTY_FUNCTION__._ZNK5boost10shared_ptrIN8QuantLib18YieldTermStructureEEptEv, ptr noundef @.str.10, i64 noundef 784)
  br label %cond.end

cond.end:                                         ; preds = %cond.false, %cond.true
  %px3 = getelementptr inbounds nuw %"class.boost::shared_ptr.27", ptr %this1, i32 0, i32 0
  %1 = load ptr, ptr %px3, align 8, !tbaa !68
  ret ptr %1
}

; Function Attrs: mustprogress uwtable
define internal { double, double } @_ZN8QuantLib12_GLOBAL__N_122npvbpsConstNotionalLegERKSt6vectorIN5boost10shared_ptrINS_8CashFlowEEESaIS5_EERKNS_6HandleINS_18YieldTermStructureEEE(ptr noundef nonnull align 8 dereferenceable(24) %iborLeg, ptr noundef nonnull align 8 dereferenceable(16) %discountCurveHandle) #2 {
entry:
  %retval = alloca %"struct.std::pair.28", align 8
  %iborLeg.addr = alloca ptr, align 8
  %discountCurveHandle.addr = alloca ptr, align 8
  %basisPoint = alloca double, align 8
  %refDt = alloca %"class.QuantLib::Date", align 8
  %discountRef = alloca ptr, align 8
  %includeSettleDtFlows = alloca i8, align 1
  %0 = alloca %"struct.std::pair.28", align 8
  %agg.tmp = alloca %"class.QuantLib::Date", align 8
  %agg.tmp5 = alloca %"class.QuantLib::Date", align 8
  %npv = alloca ptr, align 8
  %bps = alloca ptr, align 8
  %ref.tmp = alloca %"class.QuantLib::Date", align 8
  %ref.tmp13 = alloca %"class.QuantLib::Date", align 8
  store ptr %iborLeg, ptr %iborLeg.addr, align 8, !tbaa !3
  store ptr %discountCurveHandle, ptr %discountCurveHandle.addr, align 8, !tbaa !3
  call void @llvm.lifetime.start.p0(i64 8, ptr %basisPoint) #12
  store double 1.000000e-04, ptr %basisPoint, align 8, !tbaa !71
  call void @llvm.lifetime.start.p0(i64 8, ptr %refDt) #12
  %1 = load ptr, ptr %discountCurveHandle.addr, align 8, !tbaa !3
  %call = call noundef nonnull align 8 dereferenceable(16) ptr @_ZNK8QuantLib6HandleINS_18YieldTermStructureEEptEv(ptr noundef nonnull align 8 dereferenceable(16) %1)
  %call1 = call noundef ptr @_ZNK5boost10shared_ptrIN8QuantLib18YieldTermStructureEEptEv(ptr noundef nonnull align 8 dereferenceable(16) %call)
  %vtable = load ptr, ptr %call1, align 8, !tbaa !12
  %vfn = getelementptr inbounds ptr, ptr %vtable, i64 5
  %2 = load ptr, ptr %vfn, align 8
  %call2 = call noundef nonnull align 8 dereferenceable(8) ptr %2(ptr noundef nonnull align 8 dereferenceable(64) %call1)
  call void @llvm.memcpy.p0.p0.i64(ptr align 8 %refDt, ptr align 8 %call2, i64 8, i1 false), !tbaa.struct !63
  call void @llvm.lifetime.start.p0(i64 8, ptr %discountRef) #12
  %3 = load ptr, ptr %discountCurveHandle.addr, align 8, !tbaa !3
  %call3 = call noundef nonnull align 8 dereferenceable(16) ptr @_ZNK8QuantLib6HandleINS_18YieldTermStructureEEdeEv(ptr noundef nonnull align 8 dereferenceable(16) %3)
  %call4 = call noundef nonnull align 8 dereferenceable(152) ptr @_ZNK5boost10shared_ptrIN8QuantLib18YieldTermStructureEEdeEv(ptr noundef nonnull align 8 dereferenceable(16) %call3)
  store ptr %call4, ptr %discountRef, align 8, !tbaa !3
  call void @llvm.lifetime.start.p0(i64 1, ptr %includeSettleDtFlows) #12
  store i8 1, ptr %includeSettleDtFlows, align 1, !tbaa !18
  call void @llvm.lifetime.start.p0(i64 16, ptr %0) #12
  %4 = load ptr, ptr %iborLeg.addr, align 8, !tbaa !3
  %5 = load ptr, ptr %discountRef, align 8, !tbaa !3
  %6 = load i8, ptr %includeSettleDtFlows, align 1, !tbaa !18, !range !58, !noundef !59
  %loadedv = trunc i8 %6 to i1
  call void @llvm.memcpy.p0.p0.i64(ptr align 8 %agg.tmp, ptr align 8 %refDt, i64 8, i1 false), !tbaa.struct !63
  call void @llvm.memcpy.p0.p0.i64(ptr align 8 %agg.tmp5, ptr align 8 %refDt, i64 8, i1 false), !tbaa.struct !63
  %coerce.dive = getelementptr inbounds nuw %"class.QuantLib::Date", ptr %agg.tmp, i32 0, i32 0
  %7 = load i64, ptr %coerce.dive, align 8
  %coerce.dive6 = getelementptr inbounds nuw %"class.QuantLib::Date", ptr %agg.tmp5, i32 0, i32 0
  %8 = load i64, ptr %coerce.dive6, align 8
  %call7 = call { double, double } @_ZN8QuantLib9CashFlows6npvbpsERKSt6vectorIN5boost10shared_ptrINS_8CashFlowEEESaIS5_EERKNS_18YieldTermStructureEbNS_4DateESD_(ptr noundef nonnull align 8 dereferenceable(24) %4, ptr noundef nonnull align 8 dereferenceable(152) %5, i1 noundef zeroext %loadedv, i64 %7, i64 %8)
  %9 = getelementptr inbounds nuw { double, double }, ptr %0, i32 0, i32 0
  %10 = extractvalue { double, double } %call7, 0
  store double %10, ptr %9, align 8
  %11 = getelementptr inbounds nuw { double, double }, ptr %0, i32 0, i32 1
  %12 = extractvalue { double, double } %call7, 1
  store double %12, ptr %11, align 8
  call void @llvm.lifetime.start.p0(i64 8, ptr %npv) #12
  %call8 = call noundef nonnull align 8 dereferenceable(8) ptr @_ZSt3getILm0EddEONSt13tuple_elementIXT_ESt4pairIT0_T1_EE4typeEOS4_(ptr noundef nonnull align 8 dereferenceable(16) %0) #12
  store ptr %call8, ptr %npv, align 8, !tbaa !3
  call void @llvm.lifetime.start.p0(i64 8, ptr %bps) #12
  %call9 = call noundef nonnull align 8 dereferenceable(8) ptr @_ZSt3getILm1EddEONSt13tuple_elementIXT_ESt4pairIT0_T1_EE4typeEOS4_(ptr noundef nonnull align 8 dereferenceable(16) %0) #12
  store ptr %call9, ptr %bps, align 8, !tbaa !3
  %13 = load ptr, ptr %discountRef, align 8, !tbaa !3
  call void @llvm.lifetime.start.p0(i64 8, ptr %ref.tmp) #12
  %14 = load ptr, ptr %iborLeg.addr, align 8, !tbaa !3
  %call10 = call i64 @_ZN8QuantLib9CashFlows9startDateERKSt6vectorIN5boost10shared_ptrINS_8CashFlowEEESaIS5_EE(ptr noundef nonnull align 8 dereferenceable(24) %14)
  %coerce.dive11 = getelementptr inbounds nuw %"class.QuantLib::Date", ptr %ref.tmp, i32 0, i32 0
  store i64 %call10, ptr %coerce.dive11, align 8
  %call12 = call noundef double @_ZNK8QuantLib18YieldTermStructure8discountERKNS_4DateEb(ptr noundef nonnull align 8 dereferenceable(152) %13, ptr noundef nonnull align 8 dereferenceable(8) %ref.tmp, i1 noundef zeroext false)
  %15 = load ptr, ptr %npv, align 8, !tbaa !3
  %16 = load double, ptr %15, align 8, !tbaa !71
  %17 = call double @llvm.fmuladd.f64(double -1.000000e+00, double %call12, double %16)
  store double %17, ptr %15, align 8, !tbaa !71
  call void @llvm.lifetime.end.p0(i64 8, ptr %ref.tmp) #12
  %18 = load ptr, ptr %discountRef, align 8, !tbaa !3
  call void @llvm.lifetime.start.p0(i64 8, ptr %ref.tmp13) #12
  %19 = load ptr, ptr %iborLeg.addr, align 8, !tbaa !3
  %call14 = call i64 @_ZN8QuantLib9CashFlows12maturityDateERKSt6vectorIN5boost10shared_ptrINS_8CashFlowEEESaIS5_EE(ptr noundef nonnull align 8 dereferenceable(24) %19)
  %coerce.dive15 = getelementptr inbounds nuw %"class.QuantLib::Date", ptr %ref.tmp13, i32 0, i32 0
  store i64 %call14, ptr %coerce.dive15, align 8
  %call16 = call noundef double @_ZNK8QuantLib18YieldTermStructure8discountERKNS_4DateEb(ptr noundef nonnull align 8 dereferenceable(152) %18, ptr noundef nonnull align 8 dereferenceable(8) %ref.tmp13, i1 noundef zeroext false)
  %20 = load ptr, ptr %npv, align 8, !tbaa !3
  %21 = load double, ptr %20, align 8, !tbaa !71
  %add = fadd double %21, %call16
  store double %add, ptr %20, align 8, !tbaa !71
  call void @llvm.lifetime.end.p0(i64 8, ptr %ref.tmp13) #12
  %22 = load ptr, ptr %bps, align 8, !tbaa !3
  %23 = load double, ptr %22, align 8, !tbaa !71
  %div = fdiv double %23, 1.000000e-04
  store double %div, ptr %22, align 8, !tbaa !71
  %24 = load ptr, ptr %npv, align 8, !tbaa !3
  %25 = load ptr, ptr %bps, align 8, !tbaa !3
  call void @_ZNSt4pairIddEC2IRdS2_TnNSt9enable_ifIXaaclsr5_PCCPE22_MoveConstructiblePairIT_T0_EEclsr5_PCCPE30_ImplicitlyMoveConvertiblePairIS4_S5_EEEbE4typeELb1EEEOS4_OS5_(ptr noundef nonnull align 8 dereferenceable(16) %retval, ptr noundef nonnull align 8 dereferenceable(8) %24, ptr noundef nonnull align 8 dereferenceable(8) %25)
  call void @llvm.lifetime.end.p0(i64 8, ptr %bps) #12
  call void @llvm.lifetime.end.p0(i64 8, ptr %npv) #12
  call void @llvm.lifetime.end.p0(i64 16, ptr %0) #12
  call void @llvm.lifetime.end.p0(i64 1, ptr %includeSettleDtFlows) #12
  call void @llvm.lifetime.end.p0(i64 8, ptr %discountRef) #12
  call void @llvm.lifetime.end.p0(i64 8, ptr %refDt) #12
  call void @llvm.lifetime.end.p0(i64 8, ptr %basisPoint) #12
  %26 = load { double, double }, ptr %retval, align 8
  ret { double, double } %26
}