; Function Attrs: mustprogress uwtable
define internal fastcc { double, double } @_ZN8QuantLib12_GLOBAL__N_122npvbpsConstNotionalLegERKSt6vectorIN5boost10shared_ptrINS_8CashFlowEEESaIS5_EERKNS_6HandleINS_18YieldTermStructureEEE(ptr noundef nonnull align 8 dereferenceable(24) %iborLeg, ptr noundef nonnull align 8 dereferenceable(16) %discountCurveHandle) unnamed_addr #7 {
entry:
  %ref.tmp = alloca %"class.QuantLib::Date", align 8
  %ref.tmp13 = alloca %"class.QuantLib::Date", align 8
  %call = tail call noundef nonnull align 8 dereferenceable(16) ptr @_ZNK8QuantLib6HandleINS_18YieldTermStructureEEptEv(ptr noundef nonnull align 8 dereferenceable(16) %discountCurveHandle)
  %0 = load ptr, ptr %call, align 8, !tbaa !116
  %cmp.not.i = icmp eq ptr %0, null
  br i1 %cmp.not.i, label %cond.false.i, label %_ZNK5boost10shared_ptrIN8QuantLib18YieldTermStructureEEptEv.exit, !prof !91

cond.false.i:                                     ; preds = %entry
  tail call void @_ZN5boost16assertion_failedEPKcS1_S1_l(ptr noundef nonnull @.str.9, ptr noundef nonnull @__PRETTY_FUNCTION__._ZNK5boost10shared_ptrIN8QuantLib18YieldTermStructureEEptEv, ptr noundef nonnull @.str.10, i64 noundef 784)
  %.pre.i = load ptr, ptr %call, align 8, !tbaa !116
  br label %_ZNK5boost10shared_ptrIN8QuantLib18YieldTermStructureEEptEv.exit

_ZNK5boost10shared_ptrIN8QuantLib18YieldTermStructureEEptEv.exit: ; preds = %entry, %cond.false.i
  %1 = phi ptr [ %0, %entry ], [ %.pre.i, %cond.false.i ]
  %vtable = load ptr, ptr %1, align 8, !tbaa !35
  %vfn = getelementptr inbounds i8, ptr %vtable, i64 40
  %2 = load ptr, ptr %vfn, align 8
  %call2 = tail call noundef nonnull align 8 dereferenceable(8) ptr %2(ptr noundef nonnull align 8 dereferenceable(64) %1)
  %refDt.sroa.0.0.copyload = load i64, ptr %call2, align 8, !tbaa !30
  %call3 = tail call noundef nonnull align 8 dereferenceable(16) ptr @_ZNK8QuantLib6HandleINS_18YieldTermStructureEEdeEv(ptr noundef nonnull align 8 dereferenceable(16) %discountCurveHandle)
  %3 = load ptr, ptr %call3, align 8, !tbaa !116
  %cmp.not.i10 = icmp eq ptr %3, null
  br i1 %cmp.not.i10, label %cond.false.i11, label %_ZNK5boost10shared_ptrIN8QuantLib18YieldTermStructureEEdeEv.exit, !prof !91

cond.false.i11:                                   ; preds = %_ZNK5boost10shared_ptrIN8QuantLib18YieldTermStructureEEptEv.exit
  tail call void @_ZN5boost16assertion_failedEPKcS1_S1_l(ptr noundef nonnull @.str.9, ptr noundef nonnull @__PRETTY_FUNCTION__._ZNK5boost10shared_ptrIN8QuantLib18YieldTermStructureEEdeEv, ptr noundef nonnull @.str.10, i64 noundef 778)
  %.pre.i12 = load ptr, ptr %call3, align 8, !tbaa !116
  br label %_ZNK5boost10shared_ptrIN8QuantLib18YieldTermStructureEEdeEv.exit

_ZNK5boost10shared_ptrIN8QuantLib18YieldTermStructureEEdeEv.exit: ; preds = %_ZNK5boost10shared_ptrIN8QuantLib18YieldTermStructureEEptEv.exit, %cond.false.i11
  %4 = phi ptr [ %3, %_ZNK5boost10shared_ptrIN8QuantLib18YieldTermStructureEEptEv.exit ], [ %.pre.i12, %cond.false.i11 ]
  %call7 = tail call { double, double } @_ZN8QuantLib9CashFlows6npvbpsERKSt6vectorIN5boost10shared_ptrINS_8CashFlowEEESaIS5_EERKNS_18YieldTermStructureEbNS_4DateESD_(ptr noundef nonnull align 8 dereferenceable(24) %iborLeg, ptr noundef nonnull align 8 dereferenceable(152) %4, i1 noundef zeroext true, i64 %refDt.sroa.0.0.copyload, i64 %refDt.sroa.0.0.copyload)
  %5 = extractvalue { double, double } %call7, 0
  %6 = extractvalue { double, double } %call7, 1
  call void @llvm.lifetime.start.p0(i64 8, ptr nonnull %ref.tmp) #28
  %call10 = tail call i64 @_ZN8QuantLib9CashFlows9startDateERKSt6vectorIN5boost10shared_ptrINS_8CashFlowEEESaIS5_EE(ptr noundef nonnull align 8 dereferenceable(24) %iborLeg)
  store i64 %call10, ptr %ref.tmp, align 8
  %call.i = call noundef double @_ZNK8QuantLib13TermStructure17timeFromReferenceERKNS_4DateE(ptr noundef nonnull align 8 dereferenceable(64) %4, ptr noundef nonnull align 8 dereferenceable(8) %ref.tmp)
  %call2.i = call noundef double @_ZNK8QuantLib18YieldTermStructure8discountEdb(ptr noundef nonnull align 8 dereferenceable(152) %4, double noundef %call.i, i1 noundef zeroext false)
  %7 = fsub double %5, %call2.i
  call void @llvm.lifetime.end.p0(i64 8, ptr nonnull %ref.tmp) #28
  call void @llvm.lifetime.start.p0(i64 8, ptr nonnull %ref.tmp13) #28
  %call14 = call i64 @_ZN8QuantLib9CashFlows12maturityDateERKSt6vectorIN5boost10shared_ptrINS_8CashFlowEEESaIS5_EE(ptr noundef nonnull align 8 dereferenceable(24) %iborLeg)
  store i64 %call14, ptr %ref.tmp13, align 8
  %call.i13 = call noundef double @_ZNK8QuantLib13TermStructure17timeFromReferenceERKNS_4DateE(ptr noundef nonnull align 8 dereferenceable(64) %4, ptr noundef nonnull align 8 dereferenceable(8) %ref.tmp13)
  %call2.i14 = call noundef double @_ZNK8QuantLib18YieldTermStructure8discountEdb(ptr noundef nonnull align 8 dereferenceable(152) %4, double noundef %call.i13, i1 noundef zeroext false)
  %add = fadd double %7, %call2.i14
  call void @llvm.lifetime.end.p0(i64 8, ptr nonnull %ref.tmp13) #28
  %div = fdiv double %6, 1.000000e-04
  %.fca.0.insert = insertvalue { double, double } poison, double %add, 0
  %.fca.1.insert = insertvalue { double, double } %.fca.0.insert, double %div, 1
  ret { double, double } %.fca.1.insert
}